target datalayout = "e-m:e-p270:32:32-p271:32:32-p272:64:64-i64:64-i128:128-f80:128-n8:16:32:64-S128"
target triple = "x86_64-pc-linux-gnu"

@.str.1 = private unnamed_addr constant [3 x i8] c"rb\00", align 1
@.str.2 = private unnamed_addr constant [36 x i8] c"Cannot open file \22%s\22 for reading.\0A\00", align 1
@.str.3 = private unnamed_addr constant [3 x i8] c"wb\00", align 1
@.str.4 = private unnamed_addr constant [36 x i8] c"Cannot open file \22%s\22 for writing.\0A\00", align 1
@.str.6 = private unnamed_addr constant [10 x i8] c"_temp__.v\00", align 1
@.str.7 = private unnamed_addr constant [3 x i8] c"//\00", align 1

; Function Attrs: nounwind uwtable
define void @Rtl_NtkCleanFile2(ptr noundef %0) #0 {
  %2 = alloca ptr, align 8
  %3 = alloca ptr, align 8
  %4 = alloca ptr, align 8
  %5 = alloca ptr, align 8
  %6 = alloca ptr, align 8
  %7 = alloca i32, align 4
  store ptr %0, ptr %2, align 8, !tbaa !3
  call void @llvm.lifetime.start.p0(i64 8, ptr %3) #7
  call void @llvm.lifetime.start.p0(i64 8, ptr %4) #7
  store ptr @.str.6, ptr %4, align 8, !tbaa !3
  call void @llvm.lifetime.start.p0(i64 8, ptr %5) #7
  %8 = load ptr, ptr %2, align 8, !tbaa !3
  %9 = call noalias ptr @fopen(ptr noundef %8, ptr noundef @.str.1)
  store ptr %9, ptr %5, align 8, !tbaa !8
  call void @llvm.lifetime.start.p0(i64 8, ptr %6) #7
  %10 = load ptr, ptr %5, align 8, !tbaa !8
  %11 = icmp eq ptr %10, null
  br i1 %11, label %12, label %15

12:                                               ; preds = %1
  %13 = load ptr, ptr %2, align 8, !tbaa !3
  %14 = call i32 (ptr, ...) @printf(ptr noundef @.str.2, ptr noundef %13)
  store i32 1, ptr %7, align 4
  br label %52

15:                                               ; preds = %1
  %16 = load ptr, ptr %4, align 8, !tbaa !3
  %17 = call noalias ptr @fopen(ptr noundef %16, ptr noundef @.str.3)
  store ptr %17, ptr %6, align 8, !tbaa !8
  %18 = load ptr, ptr %6, align 8, !tbaa !8
  %19 = icmp eq ptr %18, null
  br i1 %19, label %20, label %25

20:                                               ; preds = %15
  %21 = load ptr, ptr %5, align 8, !tbaa !8
  %22 = call i32 @fclose(ptr noundef %21)
  %23 = load ptr, ptr %4, align 8, !tbaa !3
  %24 = call i32 (ptr, ...) @printf(ptr noundef @.str.4, ptr noundef %23)
  store i32 1, ptr %7, align 4
  br label %52

25:                                               ; preds = %15
  %26 = call noalias ptr @malloc(i64 noundef 1000000) #8
  store ptr %26, ptr %3, align 8, !tbaa !3
  br label %27

27:                                               ; preds = %40, %25
  %28 = load ptr, ptr %3, align 8, !tbaa !3
  %29 = load ptr, ptr %5, align 8, !tbaa !8
  %30 = call ptr @fgets(ptr noundef %28, i32 noundef 1000000, ptr noundef %29)
  %31 = icmp ne ptr %30, null
  br i1 %31, label %32, label %41

32:                                               ; preds = %27
  %33 = load ptr, ptr %3, align 8, !tbaa !3
  %34 = call ptr @strstr(ptr noundef %33, ptr noundef @.str.7) #9
  %35 = icmp ne ptr %34, null
  br i1 %35, label %40, label %36

36:                                               ; preds = %32
  %37 = load ptr, ptr %3, align 8, !tbaa !3
  %38 = load ptr, ptr %6, align 8, !tbaa !8
  %39 = call i32 @fputs(ptr noundef %37, ptr noundef %38)
  br label %40

40:                                               ; preds = %36, %32
  br label %27, !llvm.loop !12

41:                                               ; preds = %27
  %42 = load ptr, ptr %3, align 8, !tbaa !3
  %43 = icmp ne ptr %42, null
  br i1 %43, label %44, label %46

44:                                               ; preds = %41
  %45 = load ptr, ptr %3, align 8, !tbaa !3
  call void @free(ptr noundef %45) #7
  store ptr null, ptr %3, align 8, !tbaa !3
  br label %47

46:                                               ; preds = %41
  br label %47

47:                                               ; preds = %46, %44
  %48 = load ptr, ptr %5, align 8, !tbaa !8
  %49 = call i32 @fclose(ptr noundef %48)
  %50 = load ptr, ptr %6, align 8, !tbaa !8
  %51 = call i32 @fclose(ptr noundef %50)
  store i32 0, ptr %7, align 4
  br label %52

52:                                               ; preds = %47, %20, %12
  call void @llvm.lifetime.end.p0(i64 8, ptr %6) #7
  call void @llvm.lifetime.end.p0(i64 8, ptr %5) #7
  call void @llvm.lifetime.end.p0(i64 8, ptr %4) #7
  call void @llvm.lifetime.end.p0(i64 8, ptr %3) #7
  %53 = load i32, ptr %7, align 4
  switch i32 %53, label %55 [
    i32 0, label %54
    i32 1, label %54
  ]

54:                                               ; preds = %52, %52
  ret void

55:                                               ; preds = %52
  unreachable
}