; Function Attrs: nounwind uwtable
define void @Rtl_NtkCleanFile2(ptr noundef %0) local_unnamed_addr #0 {
  %2 = tail call noalias ptr @fopen(ptr noundef %0, ptr noundef nonnull @.str.1)
  %3 = icmp eq ptr %2, null
  br i1 %3, label %4, label %6

4:                                                ; preds = %1
  %5 = tail call i32 (ptr, ...) @printf(ptr noundef nonnull dereferenceable(1) @.str.2, ptr noundef %0)
  br label %23

6:                                                ; preds = %1
  %7 = tail call noalias ptr @fopen(ptr noundef nonnull @.str.6, ptr noundef nonnull @.str.3)
  %8 = icmp eq ptr %7, null
  br i1 %8, label %9, label %12

9:                                                ; preds = %6
  %10 = tail call i32 @fclose(ptr noundef nonnull %2)
  %11 = tail call i32 (ptr, ...) @printf(ptr noundef nonnull dereferenceable(1) @.str.4, ptr noundef nonnull @.str.6)
  br label %23

12:                                               ; preds = %6
  %13 = tail call noalias dereferenceable_or_null(1000000) ptr @malloc(i64 noundef 1000000) #11
  %14 = tail call ptr @fgets(ptr noundef %13, i32 noundef 1000000, ptr noundef nonnull %2)
  %.not20 = icmp eq ptr %14, null
  br i1 %.not20, label %._crit_edge, label %.lr.ph

.lr.ph:                                           ; preds = %12, %18
  %15 = tail call ptr @strstr(ptr noundef nonnull dereferenceable(1) %13, ptr noundef nonnull dereferenceable(1) @.str.7) #12
  %.not19 = icmp eq ptr %15, null
  br i1 %.not19, label %16, label %18

16:                                               ; preds = %.lr.ph
  %17 = tail call i32 @fputs(ptr noundef nonnull %13, ptr noundef nonnull %7)
  br label %18

18:                                               ; preds = %16, %.lr.ph
  %19 = tail call ptr @fgets(ptr noundef nonnull %13, i32 noundef 1000000, ptr noundef nonnull %2)
  %.not = icmp eq ptr %19, null
  br i1 %.not, label %._crit_edge.thread, label %.lr.ph, !llvm.loop !5

._crit_edge:                                      ; preds = %12
  %.not18 = icmp eq ptr %13, null
  br i1 %.not18, label %20, label %._crit_edge.thread

._crit_edge.thread:                               ; preds = %18, %._crit_edge
  tail call void @free(ptr noundef nonnull %13) #13
  br label %20

20:                                               ; preds = %._crit_edge, %._crit_edge.thread
  %21 = tail call i32 @fclose(ptr noundef nonnull %2)
  %22 = tail call i32 @fclose(ptr noundef nonnull %7)
  br label %23

23:                                               ; preds = %20, %9, %4
  ret void
}